; Function Attrs: mustprogress uwtable
define void @_ZN32pxrInternal_v0_24__pxrReserved__7GfQuathC2ERKNS_7GfQuatfE(ptr noundef nonnull align 2 dereferenceable(8) %0, ptr noundef nonnull align 4 dereferenceable(16) %1) unnamed_addr #0 align 2 {
  tail call void @_ZN32pxrInternal_v0_24__pxrReserved__7GfVec3hC2ERKNS_7GfVec3fE(ptr noundef nonnull align 2 dereferenceable(6) %0, ptr noundef nonnull align 4 dereferenceable(12) %1)
  %3 = getelementptr inbounds nuw i8, ptr %1, i64 12
  %4 = load float, ptr %3, align 4
  %5 = bitcast float %4 to i32
  %6 = fcmp oeq float %4, 0.000000e+00
  br i1 %6, label %7, label %10

7:                                                ; preds = %2
  %8 = lshr exact i32 %5, 16
  %9 = trunc nuw i32 %8 to i16
  br label %_ZN32pxrInternal_v0_24__pxrReserved__8pxr_half4halfC2Ef.exit

10:                                               ; preds = %2
  %11 = lshr i32 %5, 23
  %12 = zext nneg i32 %11 to i64
  %13 = getelementptr inbounds nuw [512 x i16], ptr @_ZN32pxrInternal_v0_24__pxrReserved__8pxr_half4half5_eLutE, i64 0, i64 %12
  %14 = load i16, ptr %13, align 2
  %.not.i = icmp eq i16 %14, 0
  br i1 %.not.i, label %24, label %15

15:                                               ; preds = %10
  %16 = and i32 %5, 8388607
  %17 = add nuw nsw i32 %16, 4095
  %18 = lshr i32 %5, 13
  %19 = and i32 %18, 1
  %20 = add nuw nsw i32 %17, %19
  %21 = lshr i32 %20, 13
  %22 = trunc nuw nsw i32 %21 to i16
  %23 = add i16 %14, %22
  br label %_ZN32pxrInternal_v0_24__pxrReserved__8pxr_half4halfC2Ef.exit

24:                                               ; preds = %10
  %25 = tail call noundef signext i16 @_ZN32pxrInternal_v0_24__pxrReserved__8pxr_half4half7convertEi(i32 noundef %5)
  br label %_ZN32pxrInternal_v0_24__pxrReserved__8pxr_half4halfC2Ef.exit

_ZN32pxrInternal_v0_24__pxrReserved__8pxr_half4halfC2Ef.exit: ; preds = %7, %15, %24
  %.sink.i = phi i16 [ %23, %15 ], [ %25, %24 ], [ %9, %7 ]
  %26 = getelementptr inbounds nuw i8, ptr %0, i64 6
  store i16 %.sink.i, ptr %26, align 2
  ret void
}